; Function Attrs: mustprogress uwtable
define internal void @_ZN2cvL8reduceR_IhdNS_5OpAddIiiiEENS_5OpNopIiiiEEEEvRKNS_3MatERS5_(ptr noundef nonnull align 8 dereferenceable(96) %0, ptr noundef nonnull align 8 dereferenceable(96) %1) unnamed_addr #1 personality ptr @__gxx_personality_v0 {
  %3 = alloca %"struct.cv::OpAdd", align 1
  %4 = alloca %"struct.cv::OpNop", align 1
  %5 = alloca %"class.cv::ReduceR_Invoker.4", align 8
  %6 = alloca %"class.cv::Range", align 4
  call void @llvm.lifetime.start.p0(i64 1, ptr nonnull %3) #17
  call void @llvm.lifetime.start.p0(i64 1, ptr nonnull %4) #17
  call void @llvm.lifetime.start.p0(i64 1112, ptr nonnull %5) #17
  store ptr getelementptr inbounds nuw inrange(-16, 24) (i8, ptr @_ZTVN2cv15ReduceR_InvokerIhdiNS_5OpAddIiiiEENS_5OpNopIiiiEEEE, i64 16), ptr %5, align 8, !tbaa !109
  %7 = getelementptr inbounds nuw i8, ptr %5, i64 8
  store ptr %0, ptr %7, align 8, !tbaa !57
  %8 = getelementptr inbounds nuw i8, ptr %5, i64 16
  store ptr %1, ptr %8, align 8, !tbaa !57
  %9 = getelementptr inbounds nuw i8, ptr %5, i64 24
  store ptr %3, ptr %9, align 8, !tbaa !111
  %10 = getelementptr inbounds nuw i8, ptr %5, i64 32
  store ptr %4, ptr %10, align 8, !tbaa !113
  %11 = getelementptr inbounds nuw i8, ptr %0, i64 64
  %12 = load ptr, ptr %11, align 8, !tbaa !102
  %13 = getelementptr inbounds nuw i8, ptr %12, i64 4
  %14 = load i32, ptr %13, align 4, !tbaa !3
  %15 = getelementptr inbounds nuw i8, ptr %5, i64 40
  %16 = load i32, ptr %0, align 8, !tbaa !27
  %17 = lshr i32 %16, 3
  %18 = and i32 %17, 511
  %19 = add nuw nsw i32 %18, 1
  %20 = mul nsw i32 %19, %14
  %21 = sext i32 %20 to i64
  %22 = getelementptr inbounds nuw i8, ptr %5, i64 56
  store ptr %22, ptr %15, align 8, !tbaa !115
  %23 = getelementptr inbounds nuw i8, ptr %5, i64 48
  %.not.i.i.i = icmp ugt i32 %20, 264
  store i64 %21, ptr %23, align 8, !tbaa !117
  br i1 %.not.i.i.i, label %24, label %31

24:                                               ; preds = %2
  %25 = icmp slt i32 %20, 0
  %26 = shl nuw nsw i64 %21, 2
  %27 = select i1 %25, i64 -1, i64 %26
  %28 = invoke noalias noundef nonnull ptr @_Znam(i64 noundef %27) #21
          to label %.noexc.i unwind label %29

.noexc.i:                                         ; preds = %24
  store ptr %28, ptr %15, align 8, !tbaa !115
  br label %31

common.resume:                                    ; preds = %46, %29
  %common.resume.op = phi { ptr, i32 } [ %30, %29 ], [ %47, %46 ]
  resume { ptr, i32 } %common.resume.op

29:                                               ; preds = %24
  %30 = landingpad { ptr, i32 }
          cleanup
  call void @_ZN2cv16ParallelLoopBodyD2Ev(ptr noundef nonnull align 8 dereferenceable(1112) %5) #17
  br label %common.resume

31:                                               ; preds = %2, %.noexc.i
  call void @llvm.lifetime.start.p0(i64 8, ptr nonnull %6) #17
  store i32 0, ptr %6, align 4, !tbaa !118
  %32 = getelementptr inbounds nuw i8, ptr %6, i64 4
  store i32 %20, ptr %32, align 4, !tbaa !120
  %33 = shl i32 %16, 2
  %34 = and i32 %33, 28
  %35 = lshr i32 675553809, %34
  %36 = and i32 %35, 15
  %37 = mul nsw i32 %14, %36
  %38 = sdiv i32 %37, 64
  %39 = sitofp i32 %38 to double
  invoke void @_ZN2cv13parallel_for_ERKNS_5RangeERKNS_16ParallelLoopBodyEd(ptr noundef nonnull align 4 dereferenceable(8) %6, ptr noundef nonnull align 8 dereferenceable(8) %5, double noundef %39)
          to label %40 unwind label %46

40:                                               ; preds = %31
  call void @llvm.lifetime.end.p0(i64 8, ptr nonnull %6) #17
  store ptr getelementptr inbounds nuw inrange(-16, 24) (i8, ptr @_ZTVN2cv15ReduceR_InvokerIhdiNS_5OpAddIiiiEENS_5OpNopIiiiEEEE, i64 16), ptr %5, align 8, !tbaa !109
  %41 = load ptr, ptr %15, align 8, !tbaa !115
  %.not.i.i.i16 = icmp eq ptr %41, %22
  br i1 %.not.i.i.i16, label %_ZN2cv15ReduceR_InvokerIhdiNS_5OpAddIiiiEENS_5OpNopIiiiEEED2Ev.exit, label %42

42:                                               ; preds = %40
  %43 = icmp eq ptr %41, null
  br i1 %43, label %45, label %44

44:                                               ; preds = %42
  call void @_ZdaPv(ptr noundef nonnull %41) #19
  br label %45

45:                                               ; preds = %44, %42
  store ptr %22, ptr %15, align 8, !tbaa !115
  store i64 264, ptr %23, align 8, !tbaa !117
  br label %_ZN2cv15ReduceR_InvokerIhdiNS_5OpAddIiiiEENS_5OpNopIiiiEEED2Ev.exit

_ZN2cv15ReduceR_InvokerIhdiNS_5OpAddIiiiEENS_5OpNopIiiiEEED2Ev.exit: ; preds = %40, %45
  call void @_ZN2cv16ParallelLoopBodyD2Ev(ptr noundef nonnull align 8 dereferenceable(1112) %5) #17
  call void @llvm.lifetime.end.p0(i64 1112, ptr nonnull %5) #17
  call void @llvm.lifetime.end.p0(i64 1, ptr nonnull %4) #17
  call void @llvm.lifetime.end.p0(i64 1, ptr nonnull %3) #17
  ret void

46:                                               ; preds = %31
  %47 = landingpad { ptr, i32 }
          cleanup
  call void @llvm.lifetime.end.p0(i64 8, ptr nonnull %6) #17
  call void @_ZN2cv15ReduceR_InvokerIhdiNS_5OpAddIiiiEENS_5OpNopIiiiEEED2Ev(ptr noundef nonnull align 8 dereferenceable(1112) %5) #17
  call void @llvm.lifetime.end.p0(i64 1112, ptr nonnull %5) #17
  call void @llvm.lifetime.end.p0(i64 1, ptr nonnull %4) #17
  call void @llvm.lifetime.end.p0(i64 1, ptr nonnull %3) #17
  br label %common.resume
}